target datalayout = "e-m:e-p270:32:32-p271:32:32-p272:64:64-i64:64-i128:128-f80:128-n8:16:32:64-S128"
target triple = "x86_64-pc-linux-gnu"

%struct.Npn_Man_t_ = type { ptr, ptr, i32, i32, i32 }

@pNpnMan = internal global ptr null, align 8
@.str.7 = private unnamed_addr constant [37 x i8] c"Removing old table with %d entries.\0A\00", align 1
@.str.8 = private unnamed_addr constant [51 x i8] c"Created new table with %d entries from file \22%s\22.\0A\00", align 1

; Function Attrs: nounwind uwtable
define void @Npn_ManStop(ptr noundef %0) #0 {
  %2 = alloca ptr, align 8
  store ptr %0, ptr %2, align 8
  %3 = load ptr, ptr %2, align 8
  %4 = getelementptr inbounds %struct.Npn_Man_t_, ptr %3, i32 0, i32 0
  %5 = load ptr, ptr %4, align 8
  %6 = icmp ne ptr %5, null
  br i1 %6, label %7, label %13

7:                                                ; preds = %1
  %8 = load ptr, ptr %2, align 8
  %9 = getelementptr inbounds %struct.Npn_Man_t_, ptr %8, i32 0, i32 0
  %10 = load ptr, ptr %9, align 8
  call void @free(ptr noundef %10) #8
  %11 = load ptr, ptr %2, align 8
  %12 = getelementptr inbounds %struct.Npn_Man_t_, ptr %11, i32 0, i32 0
  store ptr null, ptr %12, align 8
  br label %14

13:                                               ; preds = %1
  br label %14

14:                                               ; preds = %13, %7
  %15 = load ptr, ptr %2, align 8
  %16 = getelementptr inbounds %struct.Npn_Man_t_, ptr %15, i32 0, i32 1
  %17 = load ptr, ptr %16, align 8
  %18 = icmp ne ptr %17, null
  br i1 %18, label %19, label %25

19:                                               ; preds = %14
  %20 = load ptr, ptr %2, align 8
  %21 = getelementptr inbounds %struct.Npn_Man_t_, ptr %20, i32 0, i32 1
  %22 = load ptr, ptr %21, align 8
  call void @free(ptr noundef %22) #8
  %23 = load ptr, ptr %2, align 8
  %24 = getelementptr inbounds %struct.Npn_Man_t_, ptr %23, i32 0, i32 1
  store ptr null, ptr %24, align 8
  br label %26

25:                                               ; preds = %14
  br label %26

26:                                               ; preds = %25, %19
  %27 = load ptr, ptr %2, align 8
  %28 = icmp ne ptr %27, null
  br i1 %28, label %29, label %31

29:                                               ; preds = %26
  %30 = load ptr, ptr %2, align 8
  call void @free(ptr noundef %30) #8
  store ptr null, ptr %2, align 8
  br label %32

31:                                               ; preds = %26
  br label %32

32:                                               ; preds = %31, %29
  ret void
}

; Function Attrs: nounwind uwtable
define void @Npn_ManLoad(ptr noundef %0) #0 {
  %2 = alloca ptr, align 8
  store ptr %0, ptr %2, align 8
  %3 = load ptr, ptr @pNpnMan, align 8
  %4 = icmp ne ptr %3, null
  br i1 %4, label %5, label %10

5:                                                ; preds = %1
  %6 = load ptr, ptr @pNpnMan, align 8
  %7 = getelementptr inbounds %struct.Npn_Man_t_, ptr %6, i32 0, i32 4
  %8 = load i32, ptr %7, align 8
  call void (i32, ptr, ...) @Abc_Print(i32 noundef 1, ptr noundef @.str.7, i32 noundef %8)
  %9 = load ptr, ptr @pNpnMan, align 8
  call void @Npn_ManStop(ptr noundef %9)
  br label %10

10:                                               ; preds = %5, %1
  %11 = load ptr, ptr %2, align 8
  %12 = call ptr @Npn_ManStart(ptr noundef %11)
  store ptr %12, ptr @pNpnMan, align 8
  %13 = load ptr, ptr @pNpnMan, align 8
  %14 = getelementptr inbounds %struct.Npn_Man_t_, ptr %13, i32 0, i32 4
  %15 = load i32, ptr %14, align 8
  %16 = load ptr, ptr %2, align 8
  call void (i32, ptr, ...) @Abc_Print(i32 noundef 1, ptr noundef @.str.8, i32 noundef %15, ptr noundef %16)
  ret void
}