; Function Attrs: nounwind uwtable
define void @Npn_ManLoad(ptr noundef %0) local_unnamed_addr #0 {
  %2 = load ptr, ptr @pNpnMan, align 8
  %.not = icmp eq ptr %2, null
  br i1 %.not, label %13, label %3

3:                                                ; preds = %1
  %4 = getelementptr inbounds nuw i8, ptr %2, i64 24
  %5 = load i32, ptr %4, align 8
  tail call void (i32, ptr, ...) @Abc_Print(i32 noundef 1, ptr noundef nonnull @.str.7, i32 noundef %5)
  %6 = load ptr, ptr @pNpnMan, align 8
  %7 = load ptr, ptr %6, align 8
  %.not.i = icmp eq ptr %7, null
  br i1 %.not.i, label %9, label %8

8:                                                ; preds = %3
  tail call void @free(ptr noundef nonnull %7) #22
  store ptr null, ptr %6, align 8
  br label %9

9:                                                ; preds = %8, %3
  %10 = getelementptr inbounds nuw i8, ptr %6, i64 8
  %11 = load ptr, ptr %10, align 8
  %.not9.i = icmp eq ptr %11, null
  br i1 %.not9.i, label %Npn_ManStop.exit, label %12

12:                                               ; preds = %9
  tail call void @free(ptr noundef nonnull %11) #22
  br label %Npn_ManStop.exit

Npn_ManStop.exit:                                 ; preds = %9, %12
  tail call void @free(ptr noundef nonnull %6) #22
  br label %13

13:                                               ; preds = %Npn_ManStop.exit, %1
  %14 = tail call ptr @Npn_ManStart(ptr noundef %0)
  store ptr %14, ptr @pNpnMan, align 8
  %15 = getelementptr inbounds nuw i8, ptr %14, i64 24
  %16 = load i32, ptr %15, align 8
  tail call void (i32, ptr, ...) @Abc_Print(i32 noundef 1, ptr noundef nonnull @.str.8, i32 noundef %16, ptr noundef %0)
  ret void
}